; Function Attrs: mustprogress nofree norecurse nosync nounwind willreturn memory(none) uwtable
define noundef i64 @_ZN7rocksdb5Arena17OptimizeBlockSizeEm(i64 noundef %block_size) local_unnamed_addr #0 align 2 {
entry:
  %.sroa.speculated7 = tail call i64 @llvm.umax.i64(i64 %block_size, i64 4096)
  %.sroa.speculated = tail call i64 @llvm.umin.i64(i64 %.sroa.speculated7, i64 2147483648)
  %rem = and i64 %.sroa.speculated, 15
  %cmp.not = icmp eq i64 %rem, 0
  %div1 = and i64 %.sroa.speculated, 4294967280
  %mul = add nuw nsw i64 %div1, 16
  %storemerge = select i1 %cmp.not, i64 %.sroa.speculated, i64 %mul
  ret i64 %storemerge
}